target datalayout = "e-m:e-p270:32:32-p271:32:32-p272:64:64-i64:64-i128:128-f80:128-n8:16:32:64-S128"
target triple = "x86_64-pc-linux-gnu"

%struct.strbuf = type { i64, i64, ptr }
%struct.bundle_header = type { i32, %struct.string_list, %struct.string_list, ptr, %struct.list_objects_filter_options }
%struct.string_list = type { ptr, i64, i64, i8, ptr }
%struct.list_objects_filter_options = type { %struct.strbuf, i32, i8, ptr, i64, i64, i32, i64, i64, ptr }

; Function Attrs: nounwind uwtable
define dso_local void @bundle_header_release(ptr noundef %0) #0 {
  %2 = alloca ptr, align 8
  store ptr %0, ptr %2, align 8, !tbaa !4
  %3 = load ptr, ptr %2, align 8, !tbaa !4
  %4 = getelementptr inbounds nuw %struct.bundle_header, ptr %3, i32 0, i32 1
  call void @string_list_clear(ptr noundef %4, i32 noundef 1)
  %5 = load ptr, ptr %2, align 8, !tbaa !4
  %6 = getelementptr inbounds nuw %struct.bundle_header, ptr %5, i32 0, i32 2
  call void @string_list_clear(ptr noundef %6, i32 noundef 1)
  %7 = load ptr, ptr %2, align 8, !tbaa !4
  %8 = getelementptr inbounds nuw %struct.bundle_header, ptr %7, i32 0, i32 4
  call void @list_objects_filter_release(ptr noundef %8)
  ret void
}