; Function Attrs: nounwind uwtable
define dso_local void @bundle_header_release(ptr noundef %0) local_unnamed_addr #3 {
  %2 = getelementptr inbounds nuw i8, ptr %0, i64 8
  tail call void @string_list_clear(ptr noundef nonnull %2, i32 noundef 1) #15
  %3 = getelementptr inbounds nuw i8, ptr %0, i64 48
  tail call void @string_list_clear(ptr noundef nonnull %3, i32 noundef 1) #15
  %4 = getelementptr inbounds nuw i8, ptr %0, i64 96
  tail call void @list_objects_filter_release(ptr noundef nonnull %4) #15
  ret void
}